target datalayout = "e-m:e-p270:32:32-p271:32:32-p272:64:64-i64:64-i128:128-f80:128-n8:16:32:64-S128"
target triple = "x86_64-pc-linux-gnu"

%struct.pointf_s = type { double, double }
%struct.GVJ_s = type { ptr, ptr, ptr, ptr, ptr, ptr, i32, ptr, ptr, ptr, ptr, i64, i64, ptr, i32, %struct.gvplugin_active_render_s, %struct.gvplugin_active_device_s, %struct.gvplugin_active_loadimage_t, ptr, %struct.pointf_s, i8, ptr, i32, ptr, i8, ptr, i32, i32, i32, %struct.point, %struct.point, %struct.point, %struct.point, %struct.point, i32, %struct.boxf, %struct.pointf_s, %struct.boxf, %struct.boxf, %struct.pointf_s, %struct.pointf_s, double, i32, %struct.pointf_s, %struct.boxf, %struct.pointf_s, %struct.pointf_s, i32, i32, %struct.box, %struct.box, %struct.pointf_s, %struct.pointf_s, %struct.pointf_s, i8, i8, i8, i8, i8, i8, %struct.pointf_s, %struct.pointf_s, ptr, ptr, ptr, ptr, ptr, ptr, i64, ptr }
%struct.gvplugin_active_render_s = type { ptr, i32, ptr, ptr }
%struct.gvplugin_active_device_s = type { ptr, i32, ptr, ptr }
%struct.gvplugin_active_loadimage_t = type { ptr, i32, ptr }
%struct.point = type { i32, i32 }
%struct.boxf = type { %struct.pointf_s, %struct.pointf_s }
%struct.box = type { %struct.point, %struct.point }
%struct.obj_state_s = type { ptr, i32, %union.anon, i32, %struct.color_s, %struct.color_s, %struct.color_s, i32, double, i32, i32, double, ptr, double, double, double, ptr, ptr, ptr, ptr, ptr, ptr, ptr, ptr, ptr, ptr, ptr, ptr, ptr, ptr, ptr, ptr, ptr, i16, i32, i64, ptr, i64, ptr, ptr, i32, ptr, i32, ptr }
%union.anon = type { ptr }
%struct.color_s = type { %union.anon.0, i32 }
%union.anon.0 = type { [4 x double] }
%struct._cairo_matrix = type { double, double, double, double, double, double }

@dashed = internal global [1 x double] [double 6.000000e+00], align 8
@dashed_len = internal global i32 1, align 4
@dotted = internal global [2 x double] [double 2.000000e+00, double 6.000000e+00], align 16
@dotted_len = internal global i32 2, align 4

; Function Attrs: nounwind uwtable
define internal void @cairogen_set_color(ptr noundef %0, ptr noundef %1) #0 {
  %3 = alloca ptr, align 8
  %4 = alloca ptr, align 8
  store ptr %0, ptr %3, align 8, !tbaa !34
  store ptr %1, ptr %4, align 8, !tbaa !89
  %5 = load ptr, ptr %3, align 8, !tbaa !34
  %6 = load ptr, ptr %4, align 8, !tbaa !89
  %7 = getelementptr inbounds nuw %struct.color_s, ptr %6, i32 0, i32 0
  %8 = getelementptr inbounds [4 x double], ptr %7, i64 0, i64 0
  %9 = load double, ptr %8, align 8, !tbaa !44
  %10 = load ptr, ptr %4, align 8, !tbaa !89
  %11 = getelementptr inbounds nuw %struct.color_s, ptr %10, i32 0, i32 0
  %12 = getelementptr inbounds [4 x double], ptr %11, i64 0, i64 1
  %13 = load double, ptr %12, align 8, !tbaa !44
  %14 = load ptr, ptr %4, align 8, !tbaa !89
  %15 = getelementptr inbounds nuw %struct.color_s, ptr %14, i32 0, i32 0
  %16 = getelementptr inbounds [4 x double], ptr %15, i64 0, i64 2
  %17 = load double, ptr %16, align 8, !tbaa !44
  %18 = load ptr, ptr %4, align 8, !tbaa !89
  %19 = getelementptr inbounds nuw %struct.color_s, ptr %18, i32 0, i32 0
  %20 = getelementptr inbounds [4 x double], ptr %19, i64 0, i64 3
  %21 = load double, ptr %20, align 8, !tbaa !44
  call void @cairo_set_source_rgba(ptr noundef %5, double noundef %9, double noundef %13, double noundef %17, double noundef %21)
  ret void
}

; Function Attrs: nounwind uwtable
define internal void @cairogen_set_penstyle(ptr noundef %0, ptr noundef %1) #0 {
  %3 = alloca ptr, align 8
  %4 = alloca ptr, align 8
  %5 = alloca ptr, align 8
  store ptr %0, ptr %3, align 8, !tbaa !3
  store ptr %1, ptr %4, align 8, !tbaa !34
  call void @llvm.lifetime.start.p0(i64 8, ptr %5) #14
  %6 = load ptr, ptr %3, align 8, !tbaa !3
  %7 = getelementptr inbounds nuw %struct.GVJ_s, ptr %6, i32 0, i32 4
  %8 = load ptr, ptr %7, align 8, !tbaa !64
  store ptr %8, ptr %5, align 8, !tbaa !65
  %9 = load ptr, ptr %5, align 8, !tbaa !65
  %10 = getelementptr inbounds nuw %struct.obj_state_s, ptr %9, i32 0, i32 9
  %11 = load i32, ptr %10, align 8, !tbaa !91
  %12 = icmp eq i32 %11, 1
  br i1 %12, label %13, label %16

13:                                               ; preds = %2
  %14 = load ptr, ptr %4, align 8, !tbaa !34
  %15 = load i32, ptr @dashed_len, align 4, !tbaa !42
  call void @cairo_set_dash(ptr noundef %14, ptr noundef @dashed, i32 noundef %15, double noundef 0.000000e+00)
  br label %27

16:                                               ; preds = %2
  %17 = load ptr, ptr %5, align 8, !tbaa !65
  %18 = getelementptr inbounds nuw %struct.obj_state_s, ptr %17, i32 0, i32 9
  %19 = load i32, ptr %18, align 8, !tbaa !91
  %20 = icmp eq i32 %19, 2
  br i1 %20, label %21, label %24

21:                                               ; preds = %16
  %22 = load ptr, ptr %4, align 8, !tbaa !34
  %23 = load i32, ptr @dotted_len, align 4, !tbaa !42
  call void @cairo_set_dash(ptr noundef %22, ptr noundef @dotted, i32 noundef %23, double noundef 0.000000e+00)
  br label %26

24:                                               ; preds = %16
  %25 = load ptr, ptr %4, align 8, !tbaa !34
  call void @cairo_set_dash(ptr noundef %25, ptr noundef @dashed, i32 noundef 0, double noundef 0.000000e+00)
  br label %26

26:                                               ; preds = %24, %21
  br label %27

27:                                               ; preds = %26, %13
  %28 = load ptr, ptr %4, align 8, !tbaa !34
  %29 = load ptr, ptr %5, align 8, !tbaa !65
  %30 = getelementptr inbounds nuw %struct.obj_state_s, ptr %29, i32 0, i32 11
  %31 = load double, ptr %30, align 8, !tbaa !92
  call void @cairo_set_line_width(ptr noundef %28, double noundef %31)
  call void @llvm.lifetime.end.p0(i64 8, ptr %5) #14
  ret void
}

; Function Attrs: nounwind uwtable
define internal void @cairogen_ellipse(ptr noundef %0, ptr noundef %1, i32 noundef %2) #0 {
  %4 = alloca ptr, align 8
  %5 = alloca ptr, align 8
  %6 = alloca i32, align 4
  %7 = alloca ptr, align 8
  %8 = alloca ptr, align 8
  %9 = alloca %struct._cairo_matrix, align 8
  %10 = alloca double, align 8
  %11 = alloca double, align 8
  store ptr %0, ptr %4, align 8, !tbaa !3
  store ptr %1, ptr %5, align 8, !tbaa !81
  store i32 %2, ptr %6, align 4, !tbaa !42
  call void @llvm.lifetime.start.p0(i64 8, ptr %7) #14
  %12 = load ptr, ptr %4, align 8, !tbaa !3
  %13 = getelementptr inbounds nuw %struct.GVJ_s, ptr %12, i32 0, i32 4
  %14 = load ptr, ptr %13, align 8, !tbaa !64
  store ptr %14, ptr %7, align 8, !tbaa !65
  call void @llvm.lifetime.start.p0(i64 8, ptr %8) #14
  %15 = load ptr, ptr %4, align 8, !tbaa !3
  %16 = getelementptr inbounds nuw %struct.GVJ_s, ptr %15, i32 0, i32 23
  %17 = load ptr, ptr %16, align 8, !tbaa !33
  store ptr %17, ptr %8, align 8, !tbaa !34
  call void @llvm.lifetime.start.p0(i64 48, ptr %9) #14
  call void @llvm.lifetime.start.p0(i64 8, ptr %10) #14
  call void @llvm.lifetime.start.p0(i64 8, ptr %11) #14
  %18 = load ptr, ptr %4, align 8, !tbaa !3
  %19 = load ptr, ptr %8, align 8, !tbaa !34
  call void @cairogen_set_penstyle(ptr noundef %18, ptr noundef %19)
  %20 = load ptr, ptr %8, align 8, !tbaa !34
  call void @cairo_get_matrix(ptr noundef %20, ptr noundef %9)
  %21 = load ptr, ptr %5, align 8, !tbaa !81
  %22 = getelementptr inbounds %struct.pointf_s, ptr %21, i64 1
  %23 = getelementptr inbounds nuw %struct.pointf_s, ptr %22, i32 0, i32 0
  %24 = load double, ptr %23, align 8, !tbaa !71
  %25 = load ptr, ptr %5, align 8, !tbaa !81
  %26 = getelementptr inbounds %struct.pointf_s, ptr %25, i64 0
  %27 = getelementptr inbounds nuw %struct.pointf_s, ptr %26, i32 0, i32 0
  %28 = load double, ptr %27, align 8, !tbaa !71
  %29 = fsub double %24, %28
  store double %29, ptr %10, align 8, !tbaa !48
  %30 = load ptr, ptr %5, align 8, !tbaa !81
  %31 = getelementptr inbounds %struct.pointf_s, ptr %30, i64 1
  %32 = getelementptr inbounds nuw %struct.pointf_s, ptr %31, i32 0, i32 1
  %33 = load double, ptr %32, align 8, !tbaa !72
  %34 = load ptr, ptr %5, align 8, !tbaa !81
  %35 = getelementptr inbounds %struct.pointf_s, ptr %34, i64 0
  %36 = getelementptr inbounds nuw %struct.pointf_s, ptr %35, i32 0, i32 1
  %37 = load double, ptr %36, align 8, !tbaa !72
  %38 = fsub double %33, %37
  store double %38, ptr %11, align 8, !tbaa !48
  %39 = load double, ptr %10, align 8, !tbaa !48
  %40 = call double @llvm.maxnum.f64(double %39, double 1.000000e-02)
  store double %40, ptr %10, align 8, !tbaa !48
  %41 = load double, ptr %11, align 8, !tbaa !48
  %42 = call double @llvm.maxnum.f64(double %41, double 1.000000e-02)
  store double %42, ptr %11, align 8, !tbaa !48
  %43 = load ptr, ptr %8, align 8, !tbaa !34
  %44 = load ptr, ptr %5, align 8, !tbaa !81
  %45 = getelementptr inbounds %struct.pointf_s, ptr %44, i64 0
  %46 = getelementptr inbounds nuw %struct.pointf_s, ptr %45, i32 0, i32 0
  %47 = load double, ptr %46, align 8, !tbaa !71
  %48 = load ptr, ptr %5, align 8, !tbaa !81
  %49 = getelementptr inbounds %struct.pointf_s, ptr %48, i64 0
  %50 = getelementptr inbounds nuw %struct.pointf_s, ptr %49, i32 0, i32 1
  %51 = load double, ptr %50, align 8, !tbaa !72
  %52 = fneg double %51
  call void @cairo_translate(ptr noundef %43, double noundef %47, double noundef %52)
  %53 = load ptr, ptr %8, align 8, !tbaa !34
  %54 = load double, ptr %10, align 8, !tbaa !48
  %55 = load double, ptr %11, align 8, !tbaa !48
  call void @cairo_scale(ptr noundef %53, double noundef %54, double noundef %55)
  %56 = load ptr, ptr %8, align 8, !tbaa !34
  call void @cairo_move_to(ptr noundef %56, double noundef 1.000000e+00, double noundef 0.000000e+00)
  %57 = load ptr, ptr %8, align 8, !tbaa !34
  call void @cairo_arc(ptr noundef %57, double noundef 0.000000e+00, double noundef 0.000000e+00, double noundef 1.000000e+00, double noundef 0.000000e+00, double noundef 0x401921FB54442D18)
  %58 = load ptr, ptr %8, align 8, !tbaa !34
  call void @cairo_set_matrix(ptr noundef %58, ptr noundef %9)
  %59 = load i32, ptr %6, align 4, !tbaa !42
  %60 = icmp eq i32 %59, 2
  br i1 %60, label %64, label %61

61:                                               ; preds = %3
  %62 = load i32, ptr %6, align 4, !tbaa !42
  %63 = icmp eq i32 %62, 3
  br i1 %63, label %64, label %69

64:                                               ; preds = %61, %3
  %65 = load ptr, ptr %8, align 8, !tbaa !34
  %66 = load ptr, ptr %7, align 8, !tbaa !65
  %67 = load i32, ptr %6, align 4, !tbaa !42
  %68 = load ptr, ptr %5, align 8, !tbaa !81
  call void @cairo_gradient_fill(ptr noundef %65, ptr noundef %66, i32 noundef %67, ptr noundef %68, i64 noundef 2)
  br label %78

69:                                               ; preds = %61
  %70 = load i32, ptr %6, align 4, !tbaa !42
  %71 = icmp ne i32 %70, 0
  br i1 %71, label %72, label %77

72:                                               ; preds = %69
  %73 = load ptr, ptr %8, align 8, !tbaa !34
  %74 = load ptr, ptr %7, align 8, !tbaa !65
  %75 = getelementptr inbounds nuw %struct.obj_state_s, ptr %74, i32 0, i32 5
  call void @cairogen_set_color(ptr noundef %73, ptr noundef %75)
  %76 = load ptr, ptr %8, align 8, !tbaa !34
  call void @cairo_fill_preserve(ptr noundef %76)
  br label %77

77:                                               ; preds = %72, %69
  br label %78

78:                                               ; preds = %77, %64
  %79 = load ptr, ptr %8, align 8, !tbaa !34
  %80 = load ptr, ptr %7, align 8, !tbaa !65
  %81 = getelementptr inbounds nuw %struct.obj_state_s, ptr %80, i32 0, i32 4
  call void @cairogen_set_color(ptr noundef %79, ptr noundef %81)
  %82 = load ptr, ptr %8, align 8, !tbaa !34
  call void @cairo_stroke(ptr noundef %82)
  call void @llvm.lifetime.end.p0(i64 8, ptr %11) #14
  call void @llvm.lifetime.end.p0(i64 8, ptr %10) #14
  call void @llvm.lifetime.end.p0(i64 48, ptr %9) #14
  call void @llvm.lifetime.end.p0(i64 8, ptr %8) #14
  call void @llvm.lifetime.end.p0(i64 8, ptr %7) #14
  ret void
}