; Function Attrs: nounwind uwtable
define internal void @cairogen_ellipse(ptr noundef readonly captures(none) %0, ptr noundef %1, i32 noundef %2) #0 {
  %4 = alloca %struct._cairo_matrix, align 8
  %5 = getelementptr inbounds nuw i8, ptr %0, i64 32
  %6 = load ptr, ptr %5, align 8, !tbaa !56
  %7 = getelementptr inbounds nuw i8, ptr %0, i64 256
  %8 = load ptr, ptr %7, align 8, !tbaa !32
  call void @llvm.lifetime.start.p0(i64 48, ptr nonnull %4) #20
  %9 = getelementptr inbounds nuw i8, ptr %6, i64 168
  %10 = load i32, ptr %9, align 8, !tbaa !72
  switch i32 %10, label %13 [
    i32 1, label %11
    i32 2, label %12
  ]

11:                                               ; preds = %3
  tail call void @cairo_set_dash(ptr noundef %8, ptr noundef nonnull @dashed, i32 noundef 1, double noundef 0.000000e+00) #20
  br label %cairogen_set_penstyle.exit

12:                                               ; preds = %3
  tail call void @cairo_set_dash(ptr noundef %8, ptr noundef nonnull @dotted, i32 noundef 2, double noundef 0.000000e+00) #20
  br label %cairogen_set_penstyle.exit

13:                                               ; preds = %3
  tail call void @cairo_set_dash(ptr noundef %8, ptr noundef nonnull @dashed, i32 noundef 0, double noundef 0.000000e+00) #20
  br label %cairogen_set_penstyle.exit

cairogen_set_penstyle.exit:                       ; preds = %11, %12, %13
  %14 = getelementptr inbounds nuw i8, ptr %6, i64 176
  %15 = load double, ptr %14, align 8, !tbaa !73
  tail call void @cairo_set_line_width(ptr noundef %8, double noundef %15) #20
  call void @cairo_get_matrix(ptr noundef %8, ptr noundef nonnull %4) #20
  %16 = getelementptr inbounds nuw i8, ptr %1, i64 16
  %17 = load double, ptr %16, align 8, !tbaa !62
  %18 = load double, ptr %1, align 8, !tbaa !62
  %19 = fsub double %17, %18
  %20 = getelementptr inbounds nuw i8, ptr %1, i64 24
  %21 = load double, ptr %20, align 8, !tbaa !64
  %22 = getelementptr inbounds nuw i8, ptr %1, i64 8
  %23 = load double, ptr %22, align 8, !tbaa !64
  %24 = fsub double %21, %23
  %25 = call double @llvm.maxnum.f64(double %19, double 1.000000e-02)
  %26 = call double @llvm.maxnum.f64(double %24, double 1.000000e-02)
  %27 = fneg double %23
  call void @cairo_translate(ptr noundef %8, double noundef %18, double noundef %27) #20
  call void @cairo_scale(ptr noundef %8, double noundef %25, double noundef %26) #20
  call void @cairo_move_to(ptr noundef %8, double noundef 1.000000e+00, double noundef 0.000000e+00) #20
  call void @cairo_arc(ptr noundef %8, double noundef 0.000000e+00, double noundef 0.000000e+00, double noundef 1.000000e+00, double noundef 0.000000e+00, double noundef 0x401921FB54442D18) #20
  call void @cairo_set_matrix(ptr noundef %8, ptr noundef nonnull %4) #20
  %28 = and i32 %2, -2
  %or.cond = icmp eq i32 %28, 2
  br i1 %or.cond, label %29, label %30

29:                                               ; preds = %cairogen_set_penstyle.exit
  call fastcc void @cairo_gradient_fill(ptr noundef %8, ptr noundef nonnull %6, i32 noundef %2, ptr noundef nonnull %1, i64 noundef 2)
  br label %40

30:                                               ; preds = %cairogen_set_penstyle.exit
  %.not = icmp eq i32 %2, 0
  br i1 %.not, label %40, label %31

31:                                               ; preds = %30
  %32 = getelementptr inbounds nuw i8, ptr %6, i64 72
  %33 = load double, ptr %32, align 8, !tbaa !38
  %34 = getelementptr inbounds nuw i8, ptr %6, i64 80
  %35 = load double, ptr %34, align 8, !tbaa !38
  %36 = getelementptr inbounds nuw i8, ptr %6, i64 88
  %37 = load double, ptr %36, align 8, !tbaa !38
  %38 = getelementptr inbounds nuw i8, ptr %6, i64 96
  %39 = load double, ptr %38, align 8, !tbaa !38
  call void @cairo_set_source_rgba(ptr noundef %8, double noundef %33, double noundef %35, double noundef %37, double noundef %39) #20
  call void @cairo_fill_preserve(ptr noundef %8) #20
  br label %40

40:                                               ; preds = %30, %31, %29
  %41 = getelementptr inbounds nuw i8, ptr %6, i64 32
  %42 = load double, ptr %41, align 8, !tbaa !38
  %43 = getelementptr inbounds nuw i8, ptr %6, i64 40
  %44 = load double, ptr %43, align 8, !tbaa !38
  %45 = getelementptr inbounds nuw i8, ptr %6, i64 48
  %46 = load double, ptr %45, align 8, !tbaa !38
  %47 = getelementptr inbounds nuw i8, ptr %6, i64 56
  %48 = load double, ptr %47, align 8, !tbaa !38
  call void @cairo_set_source_rgba(ptr noundef %8, double noundef %42, double noundef %44, double noundef %46, double noundef %48) #20
  call void @cairo_stroke(ptr noundef %8) #20
  call void @llvm.lifetime.end.p0(i64 48, ptr nonnull %4) #20
  ret void
}